Certificate:
    Data:
        Version: 3 (0x2)
        Serial Number: 1 (0x1)
        Signature Algorithm: sha256WithRSAEncryption
        Issuer: C=BR, ST=Minas Gerais, L=Barbacena, O=Bancada 1, CN=Cartorio B1
        Validity
            Not Before: Jan  2 22:45:46 2023 GMT
            Not After : Jan  2 22:45:46 2024 GMT
        Subject: C=BR, ST=Minas Gerais, O=Bancada 1, CN=Captive Portal B1
        Subject Public Key Info:
            Public Key Algorithm: rsaEncryption
                Public-Key: (2048 bit)
                Modulus:
                    00:d7:18:e9:4b:29:e5:8a:9f:53:a5:e2:8a:29:b5:
                    65:a9:9b:aa:9a:da:88:36:ca:6e:1b:9b:18:c1:b0:
                    a5:f7:48:9d:6d:9b:47:70:92:14:ba:8f:a9:15:5d:
                    9d:78:93:b6:c8:8e:e3:c1:0f:84:17:e5:fa:4e:d4:
                    12:9d:d0:e2:55:7d:ae:d5:b1:47:19:bd:35:13:36:
                    9f:99:94:32:50:42:80:9d:aa:9a:12:54:6a:07:ae:
                    b9:d4:e3:6d:5a:b1:bc:07:9e:2e:f7:1d:b4:de:86:
                    4a:bd:95:bb:86:98:36:91:d3:57:b4:b9:13:77:06:
                    89:4f:ac:2e:72:38:57:f4:b1:c2:7d:35:4b:71:9c:
                    89:67:83:6d:cf:78:fa:16:46:d8:68:8a:ad:ee:9e:
                    d3:36:bc:25:b2:96:27:2a:13:0a:ab:9e:c9:09:3c:
                    34:17:8c:12:c4:ad:c2:ec:55:61:3e:e5:f6:69:65:
                    ca:b6:8a:01:18:96:a2:ef:74:a8:2b:b8:36:3b:7c:
                    e3:ef:7f:8f:bb:84:19:6e:a4:2f:69:fe:38:97:0b:
                    94:ab:2b:12:fb:fd:87:b1:90:ec:31:32:56:9c:32:
                    eb:e9:12:dc:f0:5f:6a:17:b0:dd:11:00:bd:0b:dd:
                    a5:c6:ca:3f:8f:24:4e:f4:8d:36:4d:41:5f:86:9f:
                    0d:f7
                Exponent: 65537 (0x10001)
        X509v3 extensions:
            X509v3 Basic Constraints: 
                CA:FALSE
            X509v3 Subject Key Identifier: 
                F6:F1:49:7A:D3:C4:1F:13:2D:94:0B:D7:1C:BD:15:33:C3:BA:75:55
            X509v3 Authority Key Identifier: 
                26:5A:18:D3:8B:0F:5A:36:AD:A0:79:D5:3A:E8:DC:49:76:A7:A5:3E
    Signature Algorithm: sha256WithRSAEncryption
    Signature Value:
        a4:9d:c8:78:db:f7:6e:c6:8a:a5:fb:f7:c5:a5:6e:5d:60:aa:
        33:51:cb:81:0c:84:d9:95:c5:a2:32:ca:1c:42:da:f6:e6:f0:
        0b:8b:03:a6:d0:42:b0:70:eb:30:92:cf:4f:38:08:42:58:18:
        9d:15:47:bd:fc:4d:3b:7b:3c:46:a5:50:d5:c3:f7:20:8e:d3:
        1e:5c:c0:78:6a:7b:ef:bd:e3:c5:5e:e0:c8:78:b1:44:a4:ec:
        e6:ff:cb:f8:e6:49:1d:20:94:2d:b8:ca:78:b1:e4:06:ab:8f:
        4e:dc:68:2f:71:f7:f3:09:67:9f:ca:a0:97:42:16:59:68:21:
        41:be:5e:19:4c:59:c4:fb:22:3a:2d:de:6f:9c:ce:1c:d1:b0:
        46:bd:37:5e:da:17:73:03:f0:b9:53:bb:f3:18:cd:02:45:6d:
        fa:ea:f7:2c:90:db:c5:b8:c4:7a:50:6d:25:eb:27:9c:08:0f:
        e9:05:8b:9a:29:81:90:3e:e3:8e:84:91:1e:60:c4:8b:a7:4f:
        bf:98:3c:ae:6a:9c:91:09:a2:d0:e0:47:52:ce:e1:be:dc:b6:
        1c:22:c6:e1:f4:23:5e:77:4b:42:a0:a6:ed:a0:95:b3:81:da:
        ca:88:2e:22:3d:3d:4e:07:e9:e4:09:29:3d:8f:9c:5a:18:fe:
        f1:5f:1e:a3
-----BEGIN CERTIFICATE-----
MIIDfjCCAmagAwIBAgIBATANBgkqhkiG9w0BAQsFADBiMQswCQYDVQQGEwJCUjEV
MBMGA1UECAwMTWluYXMgR2VyYWlzMRIwEAYDVQQHDAlCYXJiYWNlbmExEjAQBgNV
BAoMCUJhbmNhZGEgMTEUMBIGA1UEAwwLQ2FydG9yaW8gQjEwHhcNMjMwMTAyMjI0
NTQ2WhcNMjQwMTAyMjI0NTQ2WjBUMQswCQYDVQQGEwJCUjEVMBMGA1UECAwMTWlu
YXMgR2VyYWlzMRIwEAYDVQQKDAlCYW5jYWRhIDExGjAYBgNVBAMMEUNhcHRpdmUg
UG9ydGFsIEIxMIIBIjANBgkqhkiG9w0BAQEFAAOCAQ8AMIIBCgKCAQEA1xjpSynl
ip9TpeKKKbVlqZuqmtqINspuG5sYwbCl90idbZtHcJIUuo+pFV2deJO2yI7jwQ+E
F+X6TtQSndDiVX2u1bFHGb01EzafmZQyUEKAnaqaElRqB6651ONtWrG8B54u9x20
3oZKvZW7hpg2kdNXtLkTdwaJT6wucjhX9LHCfTVLcZyJZ4Ntz3j6FkbYaIqt7p7T
NrwlspYnKhMKq57JCTw0F4wSxK3C7FVhPuX2aWXKtooBGJai73SoK7g2O3zj73+P
u4QZbqQvaf44lwuUqysS+/2HsZDsMTJWnDLr6RLc8F9qF7DdEQC9C92lxso/jyRO
9I02TUFfhp8N9wIDAQABo00wSzAJBgNVHRMEAjAAMB0GA1UdDgQWBBT28Ul608Qf
Ey2UC9ccvRUzw7p1VTAfBgNVHSMEGDAWgBQmWhjTiw9aNq2gedU66NxJdqelPjAN
BgkqhkiG9w0BAQsFAAOCAQEApJ3IeNv3bsaKpfv3xaVuXWCqM1HLgQyE2ZXFojLK
HELa9ubwC4sDptBCsHDrMJLPTzgIQlgYnRVHvfxNO3s8RqVQ1cP3II7THlzAeGp7
773jxV7gyHixRKTs5v/L+OZJHSCULbjKeLHkBquPTtxoL3H38wlnn8qgl0IWWWgh
Qb5eGUxZxPsiOi3eb5zOHNGwRr03XtoXcwPwuVO78xjNAkVt+ur3LJDbxbjEelBt
JesnnAgP6QWLmimBkD7jjoSRHmDEi6dPv5g8rmqckQmi0OBHUs7hvty2HCLG4fQj
XndLQqCm7aCVs4HayoguIj09Tgfp5AkpPY+cWhj+8V8eow==
-----END CERTIFICATE-----
